target datalayout = "e-m:e-p270:32:32-p271:32:32-p272:64:64-i64:64-i128:128-f80:128-n8:16:32:64-S128"
target triple = "x86_64-pc-linux-gnu"

%struct.wtap = type { ptr, ptr, i8, i32, i32, ptr, ptr, ptr, i32, ptr, ptr, ptr, ptr, ptr, ptr, ptr, ptr, ptr, ptr, i32, i32, ptr, ptr, ptr, ptr }

@cosine_file_type_subtype = internal global i32 -1, align 4
@.str.1 = private unnamed_addr constant [6 x i8] c"l2-tx\00", align 1
@.str.2 = private unnamed_addr constant [6 x i8] c"l2-rx\00", align 1

; Function Attrs: null_pointer_is_valid sspstrong uwtable
define internal zeroext i1 @cosine_check_file_type(ptr noundef %0, ptr noundef %1, ptr noundef %2) #0 {
  %4 = alloca i1, align 1
  %5 = alloca ptr, align 8
  %6 = alloca ptr, align 8
  %7 = alloca ptr, align 8
  %8 = alloca [240 x i8], align 16
  %9 = alloca i64, align 8
  %10 = alloca i32, align 4
  %11 = alloca i32, align 4
  store ptr %0, ptr %5, align 8
  store ptr %1, ptr %6, align 8
  store ptr %2, ptr %7, align 8
  call void @llvm.lifetime.start.p0(i64 240, ptr %8) #8
  call void @llvm.lifetime.start.p0(i64 8, ptr %9) #8
  call void @llvm.lifetime.start.p0(i64 4, ptr %10) #8
  %12 = getelementptr [240 x i8], ptr %8, i64 0, i64 239
  store i8 0, ptr %12, align 1
  store i32 0, ptr %10, align 4
  br label %13

13:                                               ; preds = %46, %3
  %14 = load i32, ptr %10, align 4
  %15 = icmp ult i32 %14, 200
  br i1 %15, label %16, label %49

16:                                               ; preds = %13
  %17 = getelementptr inbounds [240 x i8], ptr %8, i64 0, i64 0
  %18 = load ptr, ptr %5, align 8
  %19 = getelementptr inbounds nuw %struct.wtap, ptr %18, i32 0, i32 0
  %20 = load ptr, ptr %19, align 8
  %21 = call ptr @file_gets(ptr noundef %17, i32 noundef 240, ptr noundef %20)
  %22 = icmp eq ptr %21, null
  br i1 %22, label %23, label %30

23:                                               ; preds = %16
  %24 = load ptr, ptr %5, align 8
  %25 = getelementptr inbounds nuw %struct.wtap, ptr %24, i32 0, i32 0
  %26 = load ptr, ptr %25, align 8
  %27 = load ptr, ptr %7, align 8
  %28 = call i32 @file_error(ptr noundef %26, ptr noundef %27)
  %29 = load ptr, ptr %6, align 8
  store i32 %28, ptr %29, align 4
  store i1 false, ptr %4, align 1
  store i32 1, ptr %11, align 4
  br label %51

30:                                               ; preds = %16
  %31 = getelementptr inbounds [240 x i8], ptr %8, i64 0, i64 0
  %32 = call i64 @strlen(ptr noundef %31) #9
  store i64 %32, ptr %9, align 8
  %33 = load i64, ptr %9, align 8
  %34 = icmp ult i64 %33, 5
  br i1 %34, label %35, label %36

35:                                               ; preds = %30
  br label %46

36:                                               ; preds = %30
  %37 = getelementptr inbounds [240 x i8], ptr %8, i64 0, i64 0
  %38 = call ptr @strstr(ptr noundef %37, ptr noundef @.str.1) #9
  %39 = icmp ne ptr %38, null
  br i1 %39, label %44, label %40

40:                                               ; preds = %36
  %41 = getelementptr inbounds [240 x i8], ptr %8, i64 0, i64 0
  %42 = call ptr @strstr(ptr noundef %41, ptr noundef @.str.2) #9
  %43 = icmp ne ptr %42, null
  br i1 %43, label %44, label %45

44:                                               ; preds = %40, %36
  store i1 true, ptr %4, align 1
  store i32 1, ptr %11, align 4
  br label %51

45:                                               ; preds = %40
  br label %46

46:                                               ; preds = %45, %35
  %47 = load i32, ptr %10, align 4
  %48 = add i32 %47, 1
  store i32 %48, ptr %10, align 4
  br label %13, !llvm.loop !6

49:                                               ; preds = %13
  %50 = load ptr, ptr %6, align 8
  store i32 0, ptr %50, align 4
  store i1 false, ptr %4, align 1
  store i32 1, ptr %11, align 4
  br label %51

51:                                               ; preds = %49, %44, %23
  call void @llvm.lifetime.end.p0(i64 4, ptr %10) #8
  call void @llvm.lifetime.end.p0(i64 8, ptr %9) #8
  call void @llvm.lifetime.end.p0(i64 240, ptr %8) #8
  %52 = load i1, ptr %4, align 1
  ret i1 %52
}

; Function Attrs: null_pointer_is_valid sspstrong uwtable
define hidden i32 @cosine_open(ptr noundef %0, ptr noundef %1, ptr noundef %2) #0 {
  %4 = alloca i32, align 4
  %5 = alloca ptr, align 8
  %6 = alloca ptr, align 8
  %7 = alloca ptr, align 8
  store ptr %0, ptr %5, align 8
  store ptr %1, ptr %6, align 8
  store ptr %2, ptr %7, align 8
  %8 = load ptr, ptr %5, align 8
  %9 = load ptr, ptr %6, align 8
  %10 = load ptr, ptr %7, align 8
  %11 = call zeroext i1 @cosine_check_file_type(ptr noundef %8, ptr noundef %9, ptr noundef %10)
  br i1 %11, label %22, label %12

12:                                               ; preds = %3
  %13 = load ptr, ptr %6, align 8
  %14 = load i32, ptr %13, align 4
  %15 = icmp ne i32 %14, 0
  br i1 %15, label %16, label %21

16:                                               ; preds = %12
  %17 = load ptr, ptr %6, align 8
  %18 = load i32, ptr %17, align 4
  %19 = icmp ne i32 %18, -12
  br i1 %19, label %20, label %21

20:                                               ; preds = %16
  store i32 -1, ptr %4, align 4
  br label %45

21:                                               ; preds = %16, %12
  store i32 0, ptr %4, align 4
  br label %45

22:                                               ; preds = %3
  %23 = load ptr, ptr %5, align 8
  %24 = getelementptr inbounds nuw %struct.wtap, ptr %23, i32 0, i32 0
  %25 = load ptr, ptr %24, align 8
  %26 = load ptr, ptr %6, align 8
  %27 = call i64 @file_seek(ptr noundef %25, i64 noundef 0, i32 noundef 0, ptr noundef %26)
  %28 = icmp eq i64 %27, -1
  br i1 %28, label %29, label %30

29:                                               ; preds = %22
  store i32 -1, ptr %4, align 4
  br label %45

30:                                               ; preds = %22
  %31 = load ptr, ptr %5, align 8
  %32 = getelementptr inbounds nuw %struct.wtap, ptr %31, i32 0, i32 19
  store i32 34, ptr %32, align 8
  %33 = load i32, ptr @cosine_file_type_subtype, align 4
  %34 = load ptr, ptr %5, align 8
  %35 = getelementptr inbounds nuw %struct.wtap, ptr %34, i32 0, i32 3
  store i32 %33, ptr %35, align 4
  %36 = load ptr, ptr %5, align 8
  %37 = getelementptr inbounds nuw %struct.wtap, ptr %36, i32 0, i32 4
  store i32 0, ptr %37, align 8
  %38 = load ptr, ptr %5, align 8
  %39 = getelementptr inbounds nuw %struct.wtap, ptr %38, i32 0, i32 15
  store ptr @cosine_read, ptr %39, align 8
  %40 = load ptr, ptr %5, align 8
  %41 = getelementptr inbounds nuw %struct.wtap, ptr %40, i32 0, i32 16
  store ptr @cosine_seek_read, ptr %41, align 8
  %42 = load ptr, ptr %5, align 8
  %43 = getelementptr inbounds nuw %struct.wtap, ptr %42, i32 0, i32 20
  store i32 2, ptr %43, align 4
  %44 = load ptr, ptr %5, align 8
  call void @wtap_add_generated_idb(ptr noundef %44)
  store i32 1, ptr %4, align 4
  br label %45

45:                                               ; preds = %30, %29, %21, %20
  %46 = load i32, ptr %4, align 4
  ret i32 %46
}