; Function Attrs: null_pointer_is_valid sspstrong uwtable
define hidden range(i32 -1, 2) i32 @cosine_open(ptr noundef %0, ptr noundef %1, ptr noundef %2) local_unnamed_addr #0 {
  %4 = alloca [240 x i8], align 16
  call void @llvm.lifetime.start.p0(i64 240, ptr nonnull %4) #9
  %5 = getelementptr inbounds nuw i8, ptr %4, i64 239
  store i8 0, ptr %5, align 1
  br label %6

6:                                                ; preds = %20, %3
  %.010.i = phi i32 [ 0, %3 ], [ %21, %20 ]
  %7 = load ptr, ptr %0, align 8
  %8 = call ptr @file_gets(ptr noundef nonnull %4, i32 noundef 240, ptr noundef %7)
  %9 = icmp eq ptr %8, null
  br i1 %9, label %10, label %13

10:                                               ; preds = %6
  %11 = load ptr, ptr %0, align 8
  %12 = call i32 @file_error(ptr noundef %11, ptr noundef %2)
  br label %.loopexit

13:                                               ; preds = %6
  %14 = call i64 @strlen(ptr noundef nonnull dereferenceable(1) %4) #10
  %15 = icmp ult i64 %14, 5
  br i1 %15, label %20, label %16

16:                                               ; preds = %13
  %17 = call ptr @strstr(ptr noundef nonnull dereferenceable(1) %4, ptr noundef nonnull dereferenceable(1) @.str.1) #10
  %.not.i = icmp eq ptr %17, null
  br i1 %.not.i, label %18, label %23

18:                                               ; preds = %16
  %19 = call ptr @strstr(ptr noundef nonnull dereferenceable(1) %4, ptr noundef nonnull dereferenceable(1) @.str.2) #10
  %.not9.i = icmp eq ptr %19, null
  br i1 %.not9.i, label %20, label %23

20:                                               ; preds = %18, %13
  %21 = add nuw nsw i32 %.010.i, 1
  %exitcond.not.i = icmp eq i32 %21, 200
  br i1 %exitcond.not.i, label %.loopexit, label %6, !llvm.loop !6

.loopexit:                                        ; preds = %20, %10
  %.sink.i = phi i32 [ %12, %10 ], [ 0, %20 ]
  store i32 %.sink.i, ptr %1, align 4
  call void @llvm.lifetime.end.p0(i64 240, ptr nonnull %4) #9
  %switch.selectcmp.case1 = icmp ne i32 %.sink.i, 0
  %switch.selectcmp.case2 = icmp ne i32 %.sink.i, -12
  %switch.selectcmp.not = and i1 %switch.selectcmp.case1, %switch.selectcmp.case2
  %22 = sext i1 %switch.selectcmp.not to i32
  br label %35

23:                                               ; preds = %18, %16
  call void @llvm.lifetime.end.p0(i64 240, ptr nonnull %4) #9
  %24 = load ptr, ptr %0, align 8
  %25 = call i64 @file_seek(ptr noundef %24, i64 noundef 0, i32 noundef 0, ptr noundef %1)
  %26 = icmp eq i64 %25, -1
  br i1 %26, label %35, label %27

27:                                               ; preds = %23
  %28 = getelementptr inbounds nuw i8, ptr %0, i64 144
  store i32 34, ptr %28, align 8
  %29 = load i32, ptr @cosine_file_type_subtype, align 4
  %30 = getelementptr inbounds nuw i8, ptr %0, i64 20
  store i32 %29, ptr %30, align 4
  %31 = getelementptr inbounds nuw i8, ptr %0, i64 24
  store i32 0, ptr %31, align 8
  %32 = getelementptr inbounds nuw i8, ptr %0, i64 112
  store ptr @cosine_read, ptr %32, align 8
  %33 = getelementptr inbounds nuw i8, ptr %0, i64 120
  store ptr @cosine_seek_read, ptr %33, align 8
  %34 = getelementptr inbounds nuw i8, ptr %0, i64 148
  store i32 2, ptr %34, align 4
  call void @wtap_add_generated_idb(ptr noundef %0)
  br label %35

35:                                               ; preds = %.loopexit, %23, %27
  %.0 = phi i32 [ 1, %27 ], [ -1, %23 ], [ %22, %.loopexit ]
  ret i32 %.0
}